target datalayout = "e-m:e-p270:32:32-p271:32:32-p272:64:64-i64:64-i128:128-f80:128-n8:16:32:64-S128"
target triple = "x86_64-pc-linux-gnu"

%struct.s_xdfenv = type { %struct.s_xdfile, %struct.s_xdfile }
%struct.s_xdfile = type { %struct.s_chastore, i64, i32, ptr, i64, i64, ptr, ptr, ptr, i64, ptr }
%struct.s_chastore = type { ptr, ptr, i64, i64, ptr, ptr, i64 }

; Function Attrs: nounwind uwtable
define dso_local i32 @xdl_do_patience_diff(ptr noundef %0, ptr noundef %1) #0 {
  %3 = alloca ptr, align 8
  %4 = alloca ptr, align 8
  store ptr %0, ptr %3, align 8, !tbaa !4
  store ptr %1, ptr %4, align 8, !tbaa !9
  %5 = load ptr, ptr %3, align 8, !tbaa !4
  %6 = load ptr, ptr %4, align 8, !tbaa !9
  %7 = load ptr, ptr %4, align 8, !tbaa !9
  %8 = getelementptr inbounds nuw %struct.s_xdfenv, ptr %7, i32 0, i32 0
  %9 = getelementptr inbounds nuw %struct.s_xdfile, ptr %8, i32 0, i32 1
  %10 = load i64, ptr %9, align 8, !tbaa !11
  %11 = trunc i64 %10 to i32
  %12 = load ptr, ptr %4, align 8, !tbaa !9
  %13 = getelementptr inbounds nuw %struct.s_xdfenv, ptr %12, i32 0, i32 1
  %14 = getelementptr inbounds nuw %struct.s_xdfile, ptr %13, i32 0, i32 1
  %15 = load i64, ptr %14, align 8, !tbaa !21
  %16 = trunc i64 %15 to i32
  %17 = call i32 @patience_diff(ptr noundef %5, ptr noundef %6, i32 noundef 1, i32 noundef %11, i32 noundef 1, i32 noundef %16)
  ret i32 %17
}