; Function Attrs: nounwind uwtable
define dso_local i32 @xdl_do_patience_diff(ptr noundef readonly captures(none) %0, ptr noundef %1) local_unnamed_addr #0 {
  %3 = getelementptr inbounds nuw i8, ptr %1, i64 56
  %4 = load i64, ptr %3, align 8, !tbaa !4
  %5 = trunc i64 %4 to i32
  %6 = getelementptr inbounds nuw i8, ptr %1, i64 192
  %7 = load i64, ptr %6, align 8, !tbaa !17
  %8 = trunc i64 %7 to i32
  %9 = tail call fastcc i32 @patience_diff(ptr noundef %0, ptr noundef %1, i32 noundef 1, i32 noundef %5, i32 noundef 1, i32 noundef %8)
  ret i32 %9
}